	.file	"baseClass.cpp"
	.section .rdata,"dr"
__ZStL19piecewise_construct:
	.space 1
.lcomm __ZStL8__ioinit,1,1
LC0:
	.ascii "Create: \0"
	.text
	.align 2
	.globl	__ZN4BaseC2ENSt7__cxx1112basic_stringIcSt11char_traitsIcESaIcEEE
	.def	__ZN4BaseC2ENSt7__cxx1112basic_stringIcSt11char_traitsIcESaIcEEE;	.scl	2;	.type	32;	.endef
__ZN4BaseC2ENSt7__cxx1112basic_stringIcSt11char_traitsIcESaIcEEE:
LFB1451:
	.cfi_startproc
	.cfi_personality 0,___gxx_personality_v0
	.cfi_lsda 0,LLSDA1451
	pushl	%ebp
	.cfi_def_cfa_offset 8
	.cfi_offset 5, -8
	movl	%esp, %ebp
	.cfi_def_cfa_register 5
	pushl	%ebx
	subl	$36, %esp
	.cfi_offset 3, -12
	movl	%ecx, -12(%ebp)
	movl	-12(%ebp), %eax
	movl	%eax, %ecx
	call	__ZNSt7__cxx1112basic_stringIcSt11char_traitsIcESaIcEEC1Ev
	movl	$LC0, 4(%esp)
	movl	$__ZSt4cout, (%esp)
LEHB0:
	call	__ZStlsISt11char_traitsIcEERSt13basic_ostreamIcT_ES5_PKc
	movl	%eax, %edx
	movl	8(%ebp), %eax
	movl	%eax, 4(%esp)
	movl	%edx, (%esp)
	call	__ZStlsIcSt11char_traitsIcESaIcEERSt13basic_ostreamIT_T0_ES7_RKNSt7__cxx1112basic_stringIS4_S5_T1_EE
	movl	$__ZSt4endlIcSt11char_traitsIcEERSt13basic_ostreamIT_T0_ES6_, (%esp)
	movl	%eax, %ecx
	call	__ZNSolsEPFRSoS_E
	subl	$4, %esp
	movl	-12(%ebp), %eax
	movl	8(%ebp), %edx
	movl	%edx, (%esp)
	movl	%eax, %ecx
	call	__ZNSt7__cxx1112basic_stringIcSt11char_traitsIcESaIcEEaSERKS4_
LEHE0:
	subl	$4, %esp
	jmp	L4
L3:
	movl	%eax, %ebx
	movl	-12(%ebp), %eax
	movl	%eax, %ecx
	call	__ZNSt7__cxx1112basic_stringIcSt11char_traitsIcESaIcEED1Ev
	movl	%ebx, %eax
	movl	%eax, (%esp)
LEHB1:
	call	__Unwind_Resume
LEHE1:
L4:
	movl	-4(%ebp), %ebx
	leave
	.cfi_restore 5
	.cfi_restore 3
	.cfi_def_cfa 4, 4
	ret	$4
	.cfi_endproc
LFE1451:
	.def	___gxx_personality_v0;	.scl	2;	.type	32;	.endef
	.section	.gcc_except_table,"w"
LLSDA1451:
	.byte	0xff
	.byte	0xff
	.byte	0x1
	.uleb128 LLSDACSE1451-LLSDACSB1451
LLSDACSB1451:
	.uleb128 LEHB0-LFB1451
	.uleb128 LEHE0-LEHB0
	.uleb128 L3-LFB1451
	.uleb128 0
	.uleb128 LEHB1-LFB1451
	.uleb128 LEHE1-LEHB1
	.uleb128 0
	.uleb128 0
LLSDACSE1451:
	.text
	.globl	__ZN4BaseC1ENSt7__cxx1112basic_stringIcSt11char_traitsIcESaIcEEE
	.def	__ZN4BaseC1ENSt7__cxx1112basic_stringIcSt11char_traitsIcESaIcEEE;	.scl	2;	.type	32;	.endef
	.set	__ZN4BaseC1ENSt7__cxx1112basic_stringIcSt11char_traitsIcESaIcEEE,__ZN4BaseC2ENSt7__cxx1112basic_stringIcSt11char_traitsIcESaIcEEE
	.align 2
	.globl	__ZN4BaseC2Ev
	.def	__ZN4BaseC2Ev;	.scl	2;	.type	32;	.endef
__ZN4BaseC2Ev:
LFB1454:
	.cfi_startproc
	pushl	%ebp
	.cfi_def_cfa_offset 8
	.cfi_offset 5, -8
	movl	%esp, %ebp
	.cfi_def_cfa_register 5
	subl	$24, %esp
	movl	%ecx, -12(%ebp)
	movl	-12(%ebp), %eax
	movl	%eax, %ecx
	call	__ZNSt7__cxx1112basic_stringIcSt11char_traitsIcESaIcEEC1Ev
	movl	-12(%ebp), %eax
	movl	$11, 24(%eax)
	movl	-12(%ebp), %eax
	movl	$22, 28(%eax)
	nop
	leave
	.cfi_restore 5
	.cfi_def_cfa 4, 4
	ret
	.cfi_endproc
LFE1454:
	.globl	__ZN4BaseC1Ev
	.def	__ZN4BaseC1Ev;	.scl	2;	.type	32;	.endef
	.set	__ZN4BaseC1Ev,__ZN4BaseC2Ev
	.section .rdata,"dr"
LC1:
	.ascii "Destory: \0"
	.text
	.align 2
	.globl	__ZN4BaseD2Ev
	.def	__ZN4BaseD2Ev;	.scl	2;	.type	32;	.endef
__ZN4BaseD2Ev:
LFB1457:
	.cfi_startproc
	.cfi_personality 0,___gxx_personality_v0
	.cfi_lsda 0,LLSDA1457
	pushl	%ebp
	.cfi_def_cfa_offset 8
	.cfi_offset 5, -8
	movl	%esp, %ebp
	.cfi_def_cfa_register 5
	pushl	%ebx
	subl	$36, %esp
	.cfi_offset 3, -12
	movl	%ecx, -12(%ebp)
	movl	-12(%ebp), %ebx
	movl	$LC1, 4(%esp)
	movl	$__ZSt4cout, (%esp)
	call	__ZStlsISt11char_traitsIcEERSt13basic_ostreamIcT_ES5_PKc
	movl	%ebx, 4(%esp)
	movl	%eax, (%esp)
	call	__ZStlsIcSt11char_traitsIcESaIcEERSt13basic_ostreamIT_T0_ES7_RKNSt7__cxx1112basic_stringIS4_S5_T1_EE
	movl	$__ZSt4endlIcSt11char_traitsIcEERSt13basic_ostreamIT_T0_ES6_, (%esp)
	movl	%eax, %ecx
	call	__ZNSolsEPFRSoS_E
	subl	$4, %esp
	movl	-12(%ebp), %eax
	movl	%eax, %ecx
	call	__ZNSt7__cxx1112basic_stringIcSt11char_traitsIcESaIcEED1Ev
	nop
	movl	-4(%ebp), %ebx
	leave
	.cfi_restore 5
	.cfi_restore 3
	.cfi_def_cfa 4, 4
	ret
	.cfi_endproc
LFE1457:
	.section	.gcc_except_table,"w"
LLSDA1457:
	.byte	0xff
	.byte	0xff
	.byte	0x1
	.uleb128 LLSDACSE1457-LLSDACSB1457
LLSDACSB1457:
LLSDACSE1457:
	.text
	.globl	__ZN4BaseD1Ev
	.def	__ZN4BaseD1Ev;	.scl	2;	.type	32;	.endef
	.set	__ZN4BaseD1Ev,__ZN4BaseD2Ev
	.section .rdata,"dr"
LC2:
	.ascii "MyName: \0"
	.text
	.align 2
	.globl	__ZN4Base9SayMyNameEv
	.def	__ZN4Base9SayMyNameEv;	.scl	2;	.type	32;	.endef
__ZN4Base9SayMyNameEv:
LFB1459:
	.cfi_startproc
	pushl	%ebp
	.cfi_def_cfa_offset 8
	.cfi_offset 5, -8
	movl	%esp, %ebp
	.cfi_def_cfa_register 5
	pushl	%ebx
	subl	$36, %esp
	.cfi_offset 3, -12
	movl	%ecx, -12(%ebp)
	movl	-12(%ebp), %ebx
	movl	$LC2, 4(%esp)
	movl	$__ZSt4cout, (%esp)
	call	__ZStlsISt11char_traitsIcEERSt13basic_ostreamIcT_ES5_PKc
	movl	%ebx, 4(%esp)
	movl	%eax, (%esp)
	call	__ZStlsIcSt11char_traitsIcESaIcEERSt13basic_ostreamIT_T0_ES7_RKNSt7__cxx1112basic_stringIS4_S5_T1_EE
	movl	$__ZSt4endlIcSt11char_traitsIcEERSt13basic_ostreamIT_T0_ES6_, (%esp)
	movl	%eax, %ecx
	call	__ZNSolsEPFRSoS_E
	subl	$4, %esp
	nop
	movl	-4(%ebp), %ebx
	leave
	.cfi_restore 5
	.cfi_restore 3
	.cfi_def_cfa 4, 4
	ret
	.cfi_endproc
LFE1459:
	.align 2
	.globl	__ZN4Base9SetMyNameENSt7__cxx1112basic_stringIcSt11char_traitsIcESaIcEEE
	.def	__ZN4Base9SetMyNameENSt7__cxx1112basic_stringIcSt11char_traitsIcESaIcEEE;	.scl	2;	.type	32;	.endef
__ZN4Base9SetMyNameENSt7__cxx1112basic_stringIcSt11char_traitsIcESaIcEEE:
LFB1460:
	.cfi_startproc
	pushl	%ebp
	.cfi_def_cfa_offset 8
	.cfi_offset 5, -8
	movl	%esp, %ebp
	.cfi_def_cfa_register 5
	subl	$40, %esp
	movl	%ecx, -12(%ebp)
	movl	-12(%ebp), %eax
	movl	8(%ebp), %edx
	movl	%edx, (%esp)
	movl	%eax, %ecx
	call	__ZNSt7__cxx1112basic_stringIcSt11char_traitsIcESaIcEEaSERKS4_
	subl	$4, %esp
	nop
	leave
	.cfi_restore 5
	.cfi_def_cfa 4, 4
	ret	$4
	.cfi_endproc
LFE1460:
	.def	___tcf_1;	.scl	3;	.type	32;	.endef
___tcf_1:
LFB1907:
	.cfi_startproc
	pushl	%ebp
	.cfi_def_cfa_offset 8
	.cfi_offset 5, -8
	movl	%esp, %ebp
	.cfi_def_cfa_register 5
	subl	$8, %esp
	movl	$__ZStL8__ioinit, %ecx
	call	__ZNSt8ios_base4InitD1Ev
	leave
	.cfi_restore 5
	.cfi_def_cfa 4, 4
	ret
	.cfi_endproc
LFE1907:
	.def	__Z41__static_initialization_and_destruction_0ii;	.scl	3;	.type	32;	.endef
__Z41__static_initialization_and_destruction_0ii:
LFB1906:
	.cfi_startproc
	pushl	%ebp
	.cfi_def_cfa_offset 8
	.cfi_offset 5, -8
	movl	%esp, %ebp
	.cfi_def_cfa_register 5
	subl	$24, %esp
	cmpl	$1, 8(%ebp)
	jne	L12
	cmpl	$65535, 12(%ebp)
	jne	L12
	movl	$__ZStL8__ioinit, %ecx
	call	__ZNSt8ios_base4InitC1Ev
	movl	$___tcf_1, (%esp)
	call	_atexit
L12:
	nop
	leave
	.cfi_restore 5
	.cfi_def_cfa 4, 4
	ret
	.cfi_endproc
LFE1906:
	.def	__GLOBAL__sub_I__ZN4BaseC2ENSt7__cxx1112basic_stringIcSt11char_traitsIcESaIcEEE;	.scl	3;	.type	32;	.endef
__GLOBAL__sub_I__ZN4BaseC2ENSt7__cxx1112basic_stringIcSt11char_traitsIcESaIcEEE:
LFB1908:
	.cfi_startproc
	pushl	%ebp
	.cfi_def_cfa_offset 8
	.cfi_offset 5, -8
	movl	%esp, %ebp
	.cfi_def_cfa_register 5
	subl	$24, %esp
	movl	$65535, 4(%esp)
	movl	$1, (%esp)
	call	__Z41__static_initialization_and_destruction_0ii
	leave
	.cfi_restore 5
	.cfi_def_cfa 4, 4
	ret
	.cfi_endproc
LFE1908:
	.section	.ctors,"w"
	.align 4
	.long	__GLOBAL__sub_I__ZN4BaseC2ENSt7__cxx1112basic_stringIcSt11char_traitsIcESaIcEEE
	.ident	"GCC: (MinGW.org GCC-6.3.0-1) 6.3.0"
	.def	__ZNSt7__cxx1112basic_stringIcSt11char_traitsIcESaIcEEC1Ev;	.scl	2;	.type	32;	.endef
	.def	__ZStlsISt11char_traitsIcEERSt13basic_ostreamIcT_ES5_PKc;	.scl	2;	.type	32;	.endef
	.def	__ZStlsIcSt11char_traitsIcESaIcEERSt13basic_ostreamIT_T0_ES7_RKNSt7__cxx1112basic_stringIS4_S5_T1_EE;	.scl	2;	.type	32;	.endef
	.def	__ZSt4endlIcSt11char_traitsIcEERSt13basic_ostreamIT_T0_ES6_;	.scl	2;	.type	32;	.endef
	.def	__ZNSolsEPFRSoS_E;	.scl	2;	.type	32;	.endef
	.def	__ZNSt7__cxx1112basic_stringIcSt11char_traitsIcESaIcEEaSERKS4_;	.scl	2;	.type	32;	.endef
	.def	__ZNSt7__cxx1112basic_stringIcSt11char_traitsIcESaIcEED1Ev;	.scl	2;	.type	32;	.endef
	.def	__Unwind_Resume;	.scl	2;	.type	32;	.endef
	.def	__ZNSt8ios_base4InitD1Ev;	.scl	2;	.type	32;	.endef
	.def	__ZNSt8ios_base4InitC1Ev;	.scl	2;	.type	32;	.endef
	.def	_atexit;	.scl	2;	.type	32;	.endef
